; Function Attrs: nounwind uwtable
define dso_local void @LogicalTapeSetClose(ptr noundef %0) local_unnamed_addr #0 {
  %2 = load ptr, ptr %0, align 8
  tail call void @BufFileClose(ptr noundef %2) #10
  %3 = getelementptr inbounds nuw i8, ptr %0, i64 56
  %4 = load ptr, ptr %3, align 8
  tail call void @pfree(ptr noundef %4) #10
  tail call void @pfree(ptr noundef nonnull %0) #10
  ret void
}